
_mkdir:     file format elf32-i386


Disassembly of section .text:

00000000 <main>:
#include "stat.h"
#include "user.h"

int
main(int argc, char *argv[])
{
   0:	8d 4c 24 04          	lea    0x4(%esp),%ecx
   4:	83 e4 f0             	and    $0xfffffff0,%esp
   7:	ff 71 fc             	push   -0x4(%ecx)
   a:	55                   	push   %ebp
   b:	89 e5                	mov    %esp,%ebp
   d:	57                   	push   %edi
   e:	bf 01 00 00 00       	mov    $0x1,%edi
  13:	56                   	push   %esi
  14:	53                   	push   %ebx
  15:	51                   	push   %ecx
  16:	83 ec 08             	sub    $0x8,%esp
  19:	8b 59 04             	mov    0x4(%ecx),%ebx
  1c:	8b 31                	mov    (%ecx),%esi
  1e:	83 c3 04             	add    $0x4,%ebx
  int i;

  if(argc < 2){
  21:	83 fe 01             	cmp    $0x1,%esi
  24:	7e 3e                	jle    64 <main+0x64>
  26:	2e 8d b4 26 00 00 00 	lea    %cs:0x0(%esi,%eiz,1),%esi
  2d:	00 
  2e:	66 90                	xchg   %ax,%ax
    printf(2, "Usage: mkdir files...\n");
    exit();
  }

  for(i = 1; i < argc; i++){
    if(mkdir(argv[i]) < 0){
  30:	83 ec 0c             	sub    $0xc,%esp
  33:	ff 33                	push   (%ebx)
  35:	e8 01 03 00 00       	call   33b <mkdir>
  3a:	83 c4 10             	add    $0x10,%esp
  3d:	85 c0                	test   %eax,%eax
  3f:	78 0f                	js     50 <main+0x50>
  for(i = 1; i < argc; i++){
  41:	83 c7 01             	add    $0x1,%edi
  44:	83 c3 04             	add    $0x4,%ebx
  47:	39 fe                	cmp    %edi,%esi
  49:	75 e5                	jne    30 <main+0x30>
      printf(2, "mkdir: %s failed to create\n", argv[i]);
      break;
    }
  }

  exit();
  4b:	e8 83 02 00 00       	call   2d3 <exit>
      printf(2, "mkdir: %s failed to create\n", argv[i]);
  50:	50                   	push   %eax
  51:	ff 33                	push   (%ebx)
  53:	68 bf 07 00 00       	push   $0x7bf
  58:	6a 02                	push   $0x2
  5a:	e8 e1 03 00 00       	call   440 <printf>
      break;
  5f:	83 c4 10             	add    $0x10,%esp
  62:	eb e7                	jmp    4b <main+0x4b>
    printf(2, "Usage: mkdir files...\n");
  64:	52                   	push   %edx
  65:	52                   	push   %edx
  66:	68 a8 07 00 00       	push   $0x7a8
  6b:	6a 02                	push   $0x2
  6d:	e8 ce 03 00 00       	call   440 <printf>
    exit();
  72:	e8 5c 02 00 00       	call   2d3 <exit>
  77:	66 90                	xchg   %ax,%ax
  79:	66 90                	xchg   %ax,%ax
  7b:	66 90                	xchg   %ax,%ax
  7d:	66 90                	xchg   %ax,%ax
  7f:	90                   	nop

00000080 <strcpy>:
#include "user.h"
#include "x86.h"

char*
strcpy(char *s, const char *t)
{
  80:	55                   	push   %ebp
  char *os;

  os = s;
  while((*s++ = *t++) != 0)
  81:	31 c0                	xor    %eax,%eax
{
  83:	89 e5                	mov    %esp,%ebp
  85:	53                   	push   %ebx
  86:	8b 4d 08             	mov    0x8(%ebp),%ecx
  89:	8b 5d 0c             	mov    0xc(%ebp),%ebx
  8c:	8d 74 26 00          	lea    0x0(%esi,%eiz,1),%esi
  while((*s++ = *t++) != 0)
  90:	0f b6 14 03          	movzbl (%ebx,%eax,1),%edx
  94:	88 14 01             	mov    %dl,(%ecx,%eax,1)
  97:	83 c0 01             	add    $0x1,%eax
  9a:	84 d2                	test   %dl,%dl
  9c:	75 f2                	jne    90 <strcpy+0x10>
    ;
  return os;
}
  9e:	8b 5d fc             	mov    -0x4(%ebp),%ebx
  a1:	89 c8                	mov    %ecx,%eax
  a3:	c9                   	leave
  a4:	c3                   	ret
  a5:	2e 8d b4 26 00 00 00 	lea    %cs:0x0(%esi,%eiz,1),%esi
  ac:	00 
  ad:	8d 76 00             	lea    0x0(%esi),%esi

000000b0 <strcmp>:

int
strcmp(const char *p, const char *q)
{
  b0:	55                   	push   %ebp
  b1:	89 e5                	mov    %esp,%ebp
  b3:	53                   	push   %ebx
  b4:	8b 55 08             	mov    0x8(%ebp),%edx
  b7:	8b 4d 0c             	mov    0xc(%ebp),%ecx
  while(*p && *p == *q)
  ba:	0f b6 02             	movzbl (%edx),%eax
  bd:	84 c0                	test   %al,%al
  bf:	75 2f                	jne    f0 <strcmp+0x40>
  c1:	eb 4a                	jmp    10d <strcmp+0x5d>
  c3:	eb 1b                	jmp    e0 <strcmp+0x30>
  c5:	2e 8d b4 26 00 00 00 	lea    %cs:0x0(%esi,%eiz,1),%esi
  cc:	00 
  cd:	2e 8d b4 26 00 00 00 	lea    %cs:0x0(%esi,%eiz,1),%esi
  d4:	00 
  d5:	2e 8d b4 26 00 00 00 	lea    %cs:0x0(%esi,%eiz,1),%esi
  dc:	00 
  dd:	8d 76 00             	lea    0x0(%esi),%esi
  e0:	0f b6 42 01          	movzbl 0x1(%edx),%eax
    p++, q++;
  e4:	83 c2 01             	add    $0x1,%edx
  e7:	8d 59 01             	lea    0x1(%ecx),%ebx
  while(*p && *p == *q)
  ea:	84 c0                	test   %al,%al
  ec:	74 12                	je     100 <strcmp+0x50>
  ee:	89 d9                	mov    %ebx,%ecx
  f0:	0f b6 19             	movzbl (%ecx),%ebx
  f3:	38 c3                	cmp    %al,%bl
  f5:	74 e9                	je     e0 <strcmp+0x30>
  return (uchar)*p - (uchar)*q;
  f7:	29 d8                	sub    %ebx,%eax
}
  f9:	8b 5d fc             	mov    -0x4(%ebp),%ebx
  fc:	c9                   	leave
  fd:	c3                   	ret
  fe:	66 90                	xchg   %ax,%ax
  return (uchar)*p - (uchar)*q;
 100:	0f b6 59 01          	movzbl 0x1(%ecx),%ebx
 104:	31 c0                	xor    %eax,%eax
 106:	29 d8                	sub    %ebx,%eax
}
 108:	8b 5d fc             	mov    -0x4(%ebp),%ebx
 10b:	c9                   	leave
 10c:	c3                   	ret
  return (uchar)*p - (uchar)*q;
 10d:	0f b6 19             	movzbl (%ecx),%ebx
 110:	31 c0                	xor    %eax,%eax
 112:	eb e3                	jmp    f7 <strcmp+0x47>
 114:	2e 8d b4 26 00 00 00 	lea    %cs:0x0(%esi,%eiz,1),%esi
 11b:	00 
 11c:	8d 74 26 00          	lea    0x0(%esi,%eiz,1),%esi

00000120 <strlen>:

uint
strlen(const char *s)
{
 120:	55                   	push   %ebp
 121:	89 e5                	mov    %esp,%ebp
 123:	8b 55 08             	mov    0x8(%ebp),%edx
  int n;

  for(n = 0; s[n]; n++)
 126:	80 3a 00             	cmpb   $0x0,(%edx)
 129:	74 15                	je     140 <strlen+0x20>
 12b:	31 c0                	xor    %eax,%eax
 12d:	8d 76 00             	lea    0x0(%esi),%esi
 130:	83 c0 01             	add    $0x1,%eax
 133:	80 3c 02 00          	cmpb   $0x0,(%edx,%eax,1)
 137:	89 c1                	mov    %eax,%ecx
 139:	75 f5                	jne    130 <strlen+0x10>
    ;
  return n;
}
 13b:	89 c8                	mov    %ecx,%eax
 13d:	5d                   	pop    %ebp
 13e:	c3                   	ret
 13f:	90                   	nop
  for(n = 0; s[n]; n++)
 140:	31 c9                	xor    %ecx,%ecx
}
 142:	5d                   	pop    %ebp
 143:	89 c8                	mov    %ecx,%eax
 145:	c3                   	ret
 146:	2e 8d b4 26 00 00 00 	lea    %cs:0x0(%esi,%eiz,1),%esi
 14d:	00 
 14e:	66 90                	xchg   %ax,%ax

00000150 <memset>:

void*
memset(void *dst, int c, uint n)
{
 150:	55                   	push   %ebp
 151:	89 e5                	mov    %esp,%ebp
 153:	57                   	push   %edi
 154:	8b 55 08             	mov    0x8(%ebp),%edx
}

static inline void
stosb(void *addr, int data, int cnt)
{
  asm volatile("cld; rep stosb" :
 157:	8b 4d 10             	mov    0x10(%ebp),%ecx
 15a:	8b 45 0c             	mov    0xc(%ebp),%eax
 15d:	89 d7                	mov    %edx,%edi
 15f:	fc                   	cld
 160:	f3 aa                	rep stos %al,%es:(%edi)
  stosb(dst, c, n);
  return dst;
}
 162:	8b 7d fc             	mov    -0x4(%ebp),%edi
 165:	89 d0                	mov    %edx,%eax
 167:	c9                   	leave
 168:	c3                   	ret
 169:	8d b4 26 00 00 00 00 	lea    0x0(%esi,%eiz,1),%esi

00000170 <strchr>:

char*
strchr(const char *s, char c)
{
 170:	55                   	push   %ebp
 171:	89 e5                	mov    %esp,%ebp
 173:	8b 45 08             	mov    0x8(%ebp),%eax
 176:	0f b6 4d 0c          	movzbl 0xc(%ebp),%ecx
  for(; *s; s++)
 17a:	0f b6 10             	movzbl (%eax),%edx
 17d:	84 d2                	test   %dl,%dl
 17f:	75 1a                	jne    19b <strchr+0x2b>
 181:	eb 25                	jmp    1a8 <strchr+0x38>
 183:	2e 8d b4 26 00 00 00 	lea    %cs:0x0(%esi,%eiz,1),%esi
 18a:	00 
 18b:	2e 8d 74 26 00       	lea    %cs:0x0(%esi,%eiz,1),%esi
 190:	0f b6 50 01          	movzbl 0x1(%eax),%edx
 194:	83 c0 01             	add    $0x1,%eax
 197:	84 d2                	test   %dl,%dl
 199:	74 0d                	je     1a8 <strchr+0x38>
    if(*s == c)
 19b:	38 d1                	cmp    %dl,%cl
 19d:	75 f1                	jne    190 <strchr+0x20>
      return (char*)s;
  return 0;
}
 19f:	5d                   	pop    %ebp
 1a0:	c3                   	ret
 1a1:	8d b4 26 00 00 00 00 	lea    0x0(%esi,%eiz,1),%esi
  return 0;
 1a8:	31 c0                	xor    %eax,%eax
}
 1aa:	5d                   	pop    %ebp
 1ab:	c3                   	ret
 1ac:	8d 74 26 00          	lea    0x0(%esi,%eiz,1),%esi

000001b0 <gets>:

char*
gets(char *buf, int max)
{
 1b0:	55                   	push   %ebp
 1b1:	89 e5                	mov    %esp,%ebp
 1b3:	57                   	push   %edi
 1b4:	56                   	push   %esi
  int i, cc;
  char c;

  for(i=0; i+1 < max; ){
    cc = read(0, &c, 1);
 1b5:	8d 75 e7             	lea    -0x19(%ebp),%esi
{
 1b8:	53                   	push   %ebx
  for(i=0; i+1 < max; ){
 1b9:	31 db                	xor    %ebx,%ebx
{
 1bb:	83 ec 1c             	sub    $0x1c,%esp
  for(i=0; i+1 < max; ){
 1be:	eb 27                	jmp    1e7 <gets+0x37>
    cc = read(0, &c, 1);
 1c0:	83 ec 04             	sub    $0x4,%esp
 1c3:	6a 01                	push   $0x1
 1c5:	56                   	push   %esi
 1c6:	6a 00                	push   $0x0
 1c8:	e8 1e 01 00 00       	call   2eb <read>
    if(cc < 1)
 1cd:	83 c4 10             	add    $0x10,%esp
 1d0:	85 c0                	test   %eax,%eax
 1d2:	7e 1d                	jle    1f1 <gets+0x41>
      break;
    buf[i++] = c;
 1d4:	0f b6 45 e7          	movzbl -0x19(%ebp),%eax
 1d8:	8b 55 08             	mov    0x8(%ebp),%edx
 1db:	88 44 1a ff          	mov    %al,-0x1(%edx,%ebx,1)
    if(c == '\n' || c == '\r')
 1df:	3c 0a                	cmp    $0xa,%al
 1e1:	74 10                	je     1f3 <gets+0x43>
 1e3:	3c 0d                	cmp    $0xd,%al
 1e5:	74 0c                	je     1f3 <gets+0x43>
  for(i=0; i+1 < max; ){
 1e7:	89 df                	mov    %ebx,%edi
 1e9:	83 c3 01             	add    $0x1,%ebx
 1ec:	3b 5d 0c             	cmp    0xc(%ebp),%ebx
 1ef:	7c cf                	jl     1c0 <gets+0x10>
 1f1:	89 fb                	mov    %edi,%ebx
      break;
  }
  buf[i] = '\0';
 1f3:	8b 45 08             	mov    0x8(%ebp),%eax
 1f6:	c6 04 18 00          	movb   $0x0,(%eax,%ebx,1)
  return buf;
}
 1fa:	8d 65 f4             	lea    -0xc(%ebp),%esp
 1fd:	5b                   	pop    %ebx
 1fe:	5e                   	pop    %esi
 1ff:	5f                   	pop    %edi
 200:	5d                   	pop    %ebp
 201:	c3                   	ret
 202:	2e 8d b4 26 00 00 00 	lea    %cs:0x0(%esi,%eiz,1),%esi
 209:	00 
 20a:	8d b6 00 00 00 00    	lea    0x0(%esi),%esi

00000210 <stat>:

int
stat(const char *n, struct stat *st)
{
 210:	55                   	push   %ebp
 211:	89 e5                	mov    %esp,%ebp
 213:	56                   	push   %esi
 214:	53                   	push   %ebx
  int fd;
  int r;

  fd = open(n, O_RDONLY);
 215:	83 ec 08             	sub    $0x8,%esp
 218:	6a 00                	push   $0x0
 21a:	ff 75 08             	push   0x8(%ebp)
 21d:	e8 f1 00 00 00       	call   313 <open>
  if(fd < 0)
 222:	83 c4 10             	add    $0x10,%esp
 225:	85 c0                	test   %eax,%eax
 227:	78 27                	js     250 <stat+0x40>
    return -1;
  r = fstat(fd, st);
 229:	83 ec 08             	sub    $0x8,%esp
 22c:	ff 75 0c             	push   0xc(%ebp)
 22f:	89 c3                	mov    %eax,%ebx
 231:	50                   	push   %eax
 232:	e8 f4 00 00 00       	call   32b <fstat>
  close(fd);
 237:	89 1c 24             	mov    %ebx,(%esp)
  r = fstat(fd, st);
 23a:	89 c6                	mov    %eax,%esi
  close(fd);
 23c:	e8 ba 00 00 00       	call   2fb <close>
  return r;
 241:	83 c4 10             	add    $0x10,%esp
}
 244:	8d 65 f8             	lea    -0x8(%ebp),%esp
 247:	89 f0                	mov    %esi,%eax
 249:	5b                   	pop    %ebx
 24a:	5e                   	pop    %esi
 24b:	5d                   	pop    %ebp
 24c:	c3                   	ret
 24d:	8d 76 00             	lea    0x0(%esi),%esi
    return -1;
 250:	be ff ff ff ff       	mov    $0xffffffff,%esi
 255:	eb ed                	jmp    244 <stat+0x34>
 257:	2e 8d b4 26 00 00 00 	lea    %cs:0x0(%esi,%eiz,1),%esi
 25e:	00 
 25f:	90                   	nop

00000260 <atoi>:

int
atoi(const char *s)
{
 260:	55                   	push   %ebp
 261:	89 e5                	mov    %esp,%ebp
 263:	53                   	push   %ebx
 264:	8b 55 08             	mov    0x8(%ebp),%edx
  int n;

  n = 0;
  while('0' <= *s && *s <= '9')
 267:	0f be 02             	movsbl (%edx),%eax
 26a:	8d 48 d0             	lea    -0x30(%eax),%ecx
 26d:	80 f9 09             	cmp    $0x9,%cl
  n = 0;
 270:	b9 00 00 00 00       	mov    $0x0,%ecx
  while('0' <= *s && *s <= '9')
 275:	77 1e                	ja     295 <atoi+0x35>
 277:	2e 8d b4 26 00 00 00 	lea    %cs:0x0(%esi,%eiz,1),%esi
 27e:	00 
 27f:	90                   	nop
    n = n*10 + *s++ - '0';
 280:	83 c2 01             	add    $0x1,%edx
 283:	8d 0c 89             	lea    (%ecx,%ecx,4),%ecx
 286:	8d 4c 48 d0          	lea    -0x30(%eax,%ecx,2),%ecx
  while('0' <= *s && *s <= '9')
 28a:	0f be 02             	movsbl (%edx),%eax
 28d:	8d 58 d0             	lea    -0x30(%eax),%ebx
 290:	80 fb 09             	cmp    $0x9,%bl
 293:	76 eb                	jbe    280 <atoi+0x20>
  return n;
}
 295:	8b 5d fc             	mov    -0x4(%ebp),%ebx
 298:	89 c8                	mov    %ecx,%eax
 29a:	c9                   	leave
 29b:	c3                   	ret
 29c:	8d 74 26 00          	lea    0x0(%esi,%eiz,1),%esi

000002a0 <memmove>:

void*
memmove(void *vdst, const void *vsrc, int n)
{
 2a0:	55                   	push   %ebp
 2a1:	89 e5                	mov    %esp,%ebp
 2a3:	57                   	push   %edi
 2a4:	8b 45 10             	mov    0x10(%ebp),%eax
 2a7:	8b 55 08             	mov    0x8(%ebp),%edx
 2aa:	56                   	push   %esi
 2ab:	8b 75 0c             	mov    0xc(%ebp),%esi
  char *dst;
  const char *src;

  dst = vdst;
  src = vsrc;
  while(n-- > 0)
 2ae:	85 c0                	test   %eax,%eax
 2b0:	7e 13                	jle    2c5 <memmove+0x25>
 2b2:	01 d0                	add    %edx,%eax
  dst = vdst;
 2b4:	89 d7                	mov    %edx,%edi
 2b6:	66 90                	xchg   %ax,%ax
 2b8:	2e 8d b4 26 00 00 00 	lea    %cs:0x0(%esi,%eiz,1),%esi
 2bf:	00 
    *dst++ = *src++;
 2c0:	a4                   	movsb  %ds:(%esi),%es:(%edi)
  while(n-- > 0)
 2c1:	39 f8                	cmp    %edi,%eax
 2c3:	75 fb                	jne    2c0 <memmove+0x20>
  return vdst;
}
 2c5:	5e                   	pop    %esi
 2c6:	89 d0                	mov    %edx,%eax
 2c8:	5f                   	pop    %edi
 2c9:	5d                   	pop    %ebp
 2ca:	c3                   	ret

000002cb <fork>:
  name: \
    movl $SYS_ ## name, %eax; \
    int $T_SYSCALL; \
    ret

SYSCALL(fork)
 2cb:	b8 01 00 00 00       	mov    $0x1,%eax
 2d0:	cd 40                	int    $0x40
 2d2:	c3                   	ret

000002d3 <exit>:
SYSCALL(exit)
 2d3:	b8 02 00 00 00       	mov    $0x2,%eax
 2d8:	cd 40                	int    $0x40
 2da:	c3                   	ret

000002db <wait>:
SYSCALL(wait)
 2db:	b8 03 00 00 00       	mov    $0x3,%eax
 2e0:	cd 40                	int    $0x40
 2e2:	c3                   	ret

000002e3 <pipe>:
SYSCALL(pipe)
 2e3:	b8 04 00 00 00       	mov    $0x4,%eax
 2e8:	cd 40                	int    $0x40
 2ea:	c3                   	ret

000002eb <read>:
SYSCALL(read)
 2eb:	b8 05 00 00 00       	mov    $0x5,%eax
 2f0:	cd 40                	int    $0x40
 2f2:	c3                   	ret

000002f3 <write>:
SYSCALL(write)
 2f3:	b8 10 00 00 00       	mov    $0x10,%eax
 2f8:	cd 40                	int    $0x40
 2fa:	c3                   	ret

000002fb <close>:
SYSCALL(close)
 2fb:	b8 15 00 00 00       	mov    $0x15,%eax
 300:	cd 40                	int    $0x40
 302:	c3                   	ret

00000303 <kill>:
SYSCALL(kill)
 303:	b8 06 00 00 00       	mov    $0x6,%eax
 308:	cd 40                	int    $0x40
 30a:	c3                   	ret

0000030b <exec>:
SYSCALL(exec)
 30b:	b8 07 00 00 00       	mov    $0x7,%eax
 310:	cd 40                	int    $0x40
 312:	c3                   	ret

00000313 <open>:
SYSCALL(open)
 313:	b8 0f 00 00 00       	mov    $0xf,%eax
 318:	cd 40                	int    $0x40
 31a:	c3                   	ret

0000031b <mknod>:
SYSCALL(mknod)
 31b:	b8 11 00 00 00       	mov    $0x11,%eax
 320:	cd 40                	int    $0x40
 322:	c3                   	ret

00000323 <unlink>:
SYSCALL(unlink)
 323:	b8 12 00 00 00       	mov    $0x12,%eax
 328:	cd 40                	int    $0x40
 32a:	c3                   	ret

0000032b <fstat>:
SYSCALL(fstat)
 32b:	b8 08 00 00 00       	mov    $0x8,%eax
 330:	cd 40                	int    $0x40
 332:	c3                   	ret

00000333 <link>:
SYSCALL(link)
 333:	b8 13 00 00 00       	mov    $0x13,%eax
 338:	cd 40                	int    $0x40
 33a:	c3                   	ret

0000033b <mkdir>:
SYSCALL(mkdir)
 33b:	b8 14 00 00 00       	mov    $0x14,%eax
 340:	cd 40                	int    $0x40
 342:	c3                   	ret

00000343 <chdir>:
SYSCALL(chdir)
 343:	b8 09 00 00 00       	mov    $0x9,%eax
 348:	cd 40                	int    $0x40
 34a:	c3                   	ret

0000034b <dup>:
SYSCALL(dup)
 34b:	b8 0a 00 00 00       	mov    $0xa,%eax
 350:	cd 40                	int    $0x40
 352:	c3                   	ret

00000353 <getpid>:
SYSCALL(getpid)
 353:	b8 0b 00 00 00       	mov    $0xb,%eax
 358:	cd 40                	int    $0x40
 35a:	c3                   	ret

0000035b <sbrk>:
SYSCALL(sbrk)
 35b:	b8 0c 00 00 00       	mov    $0xc,%eax
 360:	cd 40                	int    $0x40
 362:	c3                   	ret

00000363 <sleep>:
SYSCALL(sleep)
 363:	b8 0d 00 00 00       	mov    $0xd,%eax
 368:	cd 40                	int    $0x40
 36a:	c3                   	ret

0000036b <uptime>:
SYSCALL(uptime)
 36b:	b8 0e 00 00 00       	mov    $0xe,%eax
 370:	cd 40                	int    $0x40
 372:	c3                   	ret
 373:	66 90                	xchg   %ax,%ax
 375:	66 90                	xchg   %ax,%ax
 377:	66 90                	xchg   %ax,%ax
 379:	66 90                	xchg   %ax,%ax
 37b:	66 90                	xchg   %ax,%ax
 37d:	66 90                	xchg   %ax,%ax
 37f:	90                   	nop

00000380 <printint>:
  write(fd, &c, 1);
}

static void
printint(int fd, int xx, int base, int sgn)
{
 380:	55                   	push   %ebp
 381:	89 e5                	mov    %esp,%ebp
 383:	57                   	push   %edi
 384:	56                   	push   %esi
 385:	53                   	push   %ebx
 386:	89 cb                	mov    %ecx,%ebx
  uint x;

  neg = 0;
  if(sgn && xx < 0){
    neg = 1;
    x = -xx;
 388:	89 d1                	mov    %edx,%ecx
{
 38a:	83 ec 3c             	sub    $0x3c,%esp
 38d:	89 45 c4             	mov    %eax,-0x3c(%ebp)
  if(sgn && xx < 0){
 390:	85 d2                	test   %edx,%edx
 392:	0f 89 98 00 00 00    	jns    430 <printint+0xb0>
 398:	f6 45 08 01          	testb  $0x1,0x8(%ebp)
 39c:	0f 84 8e 00 00 00    	je     430 <printint+0xb0>
    x = -xx;
 3a2:	f7 d9                	neg    %ecx
    neg = 1;
 3a4:	b8 01 00 00 00       	mov    $0x1,%eax
  } else {
    x = xx;
  }

  i = 0;
 3a9:	89 45 c0             	mov    %eax,-0x40(%ebp)
 3ac:	31 f6                	xor    %esi,%esi
 3ae:	2e 8d b4 26 00 00 00 	lea    %cs:0x0(%esi,%eiz,1),%esi
 3b5:	00 
 3b6:	2e 8d b4 26 00 00 00 	lea    %cs:0x0(%esi,%eiz,1),%esi
 3bd:	00 
 3be:	66 90                	xchg   %ax,%ax
  do{
    buf[i++] = digits[x % base];
 3c0:	89 c8                	mov    %ecx,%eax
 3c2:	31 d2                	xor    %edx,%edx
 3c4:	89 f7                	mov    %esi,%edi
 3c6:	f7 f3                	div    %ebx
 3c8:	8d 76 01             	lea    0x1(%esi),%esi
 3cb:	0f b6 92 3c 08 00 00 	movzbl 0x83c(%edx),%edx
 3d2:	88 54 35 d7          	mov    %dl,-0x29(%ebp,%esi,1)
  }while((x /= base) != 0);
 3d6:	89 ca                	mov    %ecx,%edx
 3d8:	89 c1                	mov    %eax,%ecx
 3da:	39 da                	cmp    %ebx,%edx
 3dc:	73 e2                	jae    3c0 <printint+0x40>
  if(neg)
 3de:	8b 45 c0             	mov    -0x40(%ebp),%eax
 3e1:	85 c0                	test   %eax,%eax
 3e3:	74 07                	je     3ec <printint+0x6c>
    buf[i++] = '-';
 3e5:	c6 44 35 d8 2d       	movb   $0x2d,-0x28(%ebp,%esi,1)
 3ea:	89 f7                	mov    %esi,%edi

  while(--i >= 0)
 3ec:	8d 5d d8             	lea    -0x28(%ebp),%ebx
 3ef:	8b 75 c4             	mov    -0x3c(%ebp),%esi
 3f2:	01 df                	add    %ebx,%edi
 3f4:	2e 8d b4 26 00 00 00 	lea    %cs:0x0(%esi,%eiz,1),%esi
 3fb:	00 
 3fc:	8d 74 26 00          	lea    0x0(%esi,%eiz,1),%esi
    putc(fd, buf[i]);
 400:	0f b6 07             	movzbl (%edi),%eax
  write(fd, &c, 1);
 403:	83 ec 04             	sub    $0x4,%esp
 406:	88 45 d7             	mov    %al,-0x29(%ebp)
 409:	8d 45 d7             	lea    -0x29(%ebp),%eax
 40c:	6a 01                	push   $0x1
 40e:	50                   	push   %eax
 40f:	56                   	push   %esi
 410:	e8 de fe ff ff       	call   2f3 <write>
  while(--i >= 0)
 415:	89 f8                	mov    %edi,%eax
 417:	83 c4 10             	add    $0x10,%esp
 41a:	83 ef 01             	sub    $0x1,%edi
 41d:	39 d8                	cmp    %ebx,%eax
 41f:	75 df                	jne    400 <printint+0x80>
}
 421:	8d 65 f4             	lea    -0xc(%ebp),%esp
 424:	5b                   	pop    %ebx
 425:	5e                   	pop    %esi
 426:	5f                   	pop    %edi
 427:	5d                   	pop    %ebp
 428:	c3                   	ret
 429:	8d b4 26 00 00 00 00 	lea    0x0(%esi,%eiz,1),%esi
  neg = 0;
 430:	31 c0                	xor    %eax,%eax
 432:	e9 72 ff ff ff       	jmp    3a9 <printint+0x29>
 437:	2e 8d b4 26 00 00 00 	lea    %cs:0x0(%esi,%eiz,1),%esi
 43e:	00 
 43f:	90                   	nop

00000440 <printf>:

// Print to the given fd. Only understands %d, %x, %p, %s.
void
printf(int fd, const char *fmt, ...)
{
 440:	55                   	push   %ebp
 441:	89 e5                	mov    %esp,%ebp
 443:	57                   	push   %edi
 444:	56                   	push   %esi
 445:	53                   	push   %ebx
 446:	83 ec 2c             	sub    $0x2c,%esp
  int c, i, state;
  uint *ap;

  state = 0;
  ap = (uint*)(void*)&fmt + 1;
  for(i = 0; fmt[i]; i++){
 449:	8b 5d 0c             	mov    0xc(%ebp),%ebx
{
 44c:	8b 75 08             	mov    0x8(%ebp),%esi
  for(i = 0; fmt[i]; i++){
 44f:	0f b6 13             	movzbl (%ebx),%edx
 452:	83 c3 01             	add    $0x1,%ebx
 455:	84 d2                	test   %dl,%dl
 457:	0f 84 a0 00 00 00    	je     4fd <printf+0xbd>
 45d:	8d 45 10             	lea    0x10(%ebp),%eax
 460:	89 45 d4             	mov    %eax,-0x2c(%ebp)
    c = fmt[i] & 0xff;
 463:	8b 7d d4             	mov    -0x2c(%ebp),%edi
 466:	0f b6 c2             	movzbl %dl,%eax
    if(state == 0){
 469:	eb 28                	jmp    493 <printf+0x53>
 46b:	2e 8d 74 26 00       	lea    %cs:0x0(%esi,%eiz,1),%esi
  write(fd, &c, 1);
 470:	83 ec 04             	sub    $0x4,%esp
 473:	8d 45 e7             	lea    -0x19(%ebp),%eax
 476:	88 55 e7             	mov    %dl,-0x19(%ebp)
  for(i = 0; fmt[i]; i++){
 479:	83 c3 01             	add    $0x1,%ebx
  write(fd, &c, 1);
 47c:	6a 01                	push   $0x1
 47e:	50                   	push   %eax
 47f:	56                   	push   %esi
 480:	e8 6e fe ff ff       	call   2f3 <write>
  for(i = 0; fmt[i]; i++){
 485:	0f b6 53 ff          	movzbl -0x1(%ebx),%edx
 489:	83 c4 10             	add    $0x10,%esp
 48c:	84 d2                	test   %dl,%dl
 48e:	74 6d                	je     4fd <printf+0xbd>
    c = fmt[i] & 0xff;
 490:	0f b6 c2             	movzbl %dl,%eax
      if(c == '%'){
 493:	83 f8 25             	cmp    $0x25,%eax
 496:	75 d8                	jne    470 <printf+0x30>
  for(i = 0; fmt[i]; i++){
 498:	0f b6 13             	movzbl (%ebx),%edx
 49b:	84 d2                	test   %dl,%dl
 49d:	74 5e                	je     4fd <printf+0xbd>
    c = fmt[i] & 0xff;
 49f:	0f b6 c2             	movzbl %dl,%eax
        state = '%';
      } else {
        putc(fd, c);
      }
    } else if(state == '%'){
      if(c == 'd'){
 4a2:	80 fa 25             	cmp    $0x25,%dl
 4a5:	0f 84 1d 01 00 00    	je     5c8 <printf+0x188>
 4ab:	83 e8 63             	sub    $0x63,%eax
 4ae:	83 f8 15             	cmp    $0x15,%eax
 4b1:	77 0d                	ja     4c0 <printf+0x80>
 4b3:	ff 24 85 e4 07 00 00 	jmp    *0x7e4(,%eax,4)
 4ba:	8d b6 00 00 00 00    	lea    0x0(%esi),%esi
  write(fd, &c, 1);
 4c0:	83 ec 04             	sub    $0x4,%esp
 4c3:	8d 4d e7             	lea    -0x19(%ebp),%ecx
 4c6:	88 55 d0             	mov    %dl,-0x30(%ebp)
        ap++;
      } else if(c == '%'){
        putc(fd, c);
      } else {
        // Unknown % sequence.  Print it to draw attention.
        putc(fd, '%');
 4c9:	c6 45 e7 25          	movb   $0x25,-0x19(%ebp)
  write(fd, &c, 1);
 4cd:	6a 01                	push   $0x1
 4cf:	51                   	push   %ecx
 4d0:	89 4d d4             	mov    %ecx,-0x2c(%ebp)
 4d3:	56                   	push   %esi
 4d4:	e8 1a fe ff ff       	call   2f3 <write>
        putc(fd, c);
 4d9:	0f b6 55 d0          	movzbl -0x30(%ebp),%edx
  write(fd, &c, 1);
 4dd:	83 c4 0c             	add    $0xc,%esp
 4e0:	88 55 e7             	mov    %dl,-0x19(%ebp)
 4e3:	6a 01                	push   $0x1
 4e5:	8b 4d d4             	mov    -0x2c(%ebp),%ecx
 4e8:	51                   	push   %ecx
 4e9:	56                   	push   %esi
 4ea:	e8 04 fe ff ff       	call   2f3 <write>
  for(i = 0; fmt[i]; i++){
 4ef:	0f b6 53 01          	movzbl 0x1(%ebx),%edx
 4f3:	83 c3 02             	add    $0x2,%ebx
 4f6:	83 c4 10             	add    $0x10,%esp
 4f9:	84 d2                	test   %dl,%dl
 4fb:	75 93                	jne    490 <printf+0x50>
      }
      state = 0;
    }
  }
}
 4fd:	8d 65 f4             	lea    -0xc(%ebp),%esp
 500:	5b                   	pop    %ebx
 501:	5e                   	pop    %esi
 502:	5f                   	pop    %edi
 503:	5d                   	pop    %ebp
 504:	c3                   	ret
 505:	8d 76 00             	lea    0x0(%esi),%esi
        printint(fd, *ap, 16, 0);
 508:	83 ec 0c             	sub    $0xc,%esp
 50b:	8b 17                	mov    (%edi),%edx
 50d:	b9 10 00 00 00       	mov    $0x10,%ecx
 512:	89 f0                	mov    %esi,%eax
 514:	6a 00                	push   $0x0
        ap++;
 516:	83 c7 04             	add    $0x4,%edi
        printint(fd, *ap, 16, 0);
 519:	e8 62 fe ff ff       	call   380 <printint>
  for(i = 0; fmt[i]; i++){
 51e:	eb cf                	jmp    4ef <printf+0xaf>
        s = (char*)*ap;
 520:	8b 07                	mov    (%edi),%eax
        ap++;
 522:	83 c7 04             	add    $0x4,%edi
        if(s == 0)
 525:	85 c0                	test   %eax,%eax
 527:	0f 84 b3 00 00 00    	je     5e0 <printf+0x1a0>
        while(*s != 0){
 52d:	0f b6 10             	movzbl (%eax),%edx
 530:	84 d2                	test   %dl,%dl
 532:	0f 84 ba 00 00 00    	je     5f2 <printf+0x1b2>
 538:	89 7d d4             	mov    %edi,-0x2c(%ebp)
 53b:	89 c7                	mov    %eax,%edi
 53d:	89 d0                	mov    %edx,%eax
 53f:	8d 4d e7             	lea    -0x19(%ebp),%ecx
 542:	89 5d d0             	mov    %ebx,-0x30(%ebp)
 545:	89 fb                	mov    %edi,%ebx
 547:	89 cf                	mov    %ecx,%edi
 549:	8d b4 26 00 00 00 00 	lea    0x0(%esi,%eiz,1),%esi
  write(fd, &c, 1);
 550:	83 ec 04             	sub    $0x4,%esp
 553:	88 45 e7             	mov    %al,-0x19(%ebp)
          s++;
 556:	83 c3 01             	add    $0x1,%ebx
  write(fd, &c, 1);
 559:	6a 01                	push   $0x1
 55b:	57                   	push   %edi
 55c:	56                   	push   %esi
 55d:	e8 91 fd ff ff       	call   2f3 <write>
        while(*s != 0){
 562:	0f b6 03             	movzbl (%ebx),%eax
 565:	83 c4 10             	add    $0x10,%esp
 568:	84 c0                	test   %al,%al
 56a:	75 e4                	jne    550 <printf+0x110>
 56c:	8b 5d d0             	mov    -0x30(%ebp),%ebx
  for(i = 0; fmt[i]; i++){
 56f:	0f b6 53 01          	movzbl 0x1(%ebx),%edx
 573:	83 c3 02             	add    $0x2,%ebx
 576:	84 d2                	test   %dl,%dl
 578:	0f 85 e5 fe ff ff    	jne    463 <printf+0x23>
 57e:	e9 7a ff ff ff       	jmp    4fd <printf+0xbd>
 583:	2e 8d 74 26 00       	lea    %cs:0x0(%esi,%eiz,1),%esi
        printint(fd, *ap, 10, 1);
 588:	83 ec 0c             	sub    $0xc,%esp
 58b:	8b 17                	mov    (%edi),%edx
 58d:	b9 0a 00 00 00       	mov    $0xa,%ecx
 592:	89 f0                	mov    %esi,%eax
 594:	6a 01                	push   $0x1
        ap++;
 596:	83 c7 04             	add    $0x4,%edi
        printint(fd, *ap, 10, 1);
 599:	e8 e2 fd ff ff       	call   380 <printint>
  for(i = 0; fmt[i]; i++){
 59e:	e9 4c ff ff ff       	jmp    4ef <printf+0xaf>
 5a3:	2e 8d 74 26 00       	lea    %cs:0x0(%esi,%eiz,1),%esi
        putc(fd, *ap);
 5a8:	8b 07                	mov    (%edi),%eax
  write(fd, &c, 1);
 5aa:	83 ec 04             	sub    $0x4,%esp
 5ad:	8d 4d e7             	lea    -0x19(%ebp),%ecx
        ap++;
 5b0:	83 c7 04             	add    $0x4,%edi
        putc(fd, *ap);
 5b3:	88 45 e7             	mov    %al,-0x19(%ebp)
  write(fd, &c, 1);
 5b6:	6a 01                	push   $0x1
 5b8:	51                   	push   %ecx
 5b9:	56                   	push   %esi
 5ba:	e8 34 fd ff ff       	call   2f3 <write>
  for(i = 0; fmt[i]; i++){
 5bf:	e9 2b ff ff ff       	jmp    4ef <printf+0xaf>
 5c4:	8d 74 26 00          	lea    0x0(%esi,%eiz,1),%esi
  write(fd, &c, 1);
 5c8:	83 ec 04             	sub    $0x4,%esp
 5cb:	88 55 e7             	mov    %dl,-0x19(%ebp)
 5ce:	8d 4d e7             	lea    -0x19(%ebp),%ecx
 5d1:	6a 01                	push   $0x1
 5d3:	e9 10 ff ff ff       	jmp    4e8 <printf+0xa8>
 5d8:	2e 8d b4 26 00 00 00 	lea    %cs:0x0(%esi,%eiz,1),%esi
 5df:	00 
          s = "(null)";
 5e0:	89 7d d4             	mov    %edi,-0x2c(%ebp)
 5e3:	b8 28 00 00 00       	mov    $0x28,%eax
 5e8:	bf db 07 00 00       	mov    $0x7db,%edi
 5ed:	e9 4d ff ff ff       	jmp    53f <printf+0xff>
  for(i = 0; fmt[i]; i++){
 5f2:	0f b6 53 01          	movzbl 0x1(%ebx),%edx
 5f6:	83 c3 02             	add    $0x2,%ebx
 5f9:	84 d2                	test   %dl,%dl
 5fb:	0f 85 8f fe ff ff    	jne    490 <printf+0x50>
 601:	e9 f7 fe ff ff       	jmp    4fd <printf+0xbd>
 606:	66 90                	xchg   %ax,%ax
 608:	66 90                	xchg   %ax,%ax
 60a:	66 90                	xchg   %ax,%ax
 60c:	66 90                	xchg   %ax,%ax
 60e:	66 90                	xchg   %ax,%ax
 610:	66 90                	xchg   %ax,%ax
 612:	66 90                	xchg   %ax,%ax
 614:	66 90                	xchg   %ax,%ax
 616:	66 90                	xchg   %ax,%ax
 618:	66 90                	xchg   %ax,%ax
 61a:	66 90                	xchg   %ax,%ax
 61c:	66 90                	xchg   %ax,%ax
 61e:	66 90                	xchg   %ax,%ax

00000620 <free>:
static Header base;
static Header *freep;

void
free(void *ap)
{
 620:	55                   	push   %ebp
  Header *bp, *p;

  bp = (Header*)ap - 1;
  for(p = freep; !(bp > p && bp < p->s.ptr); p = p->s.ptr)
 621:	a1 e8 0a 00 00       	mov    0xae8,%eax
{
 626:	89 e5                	mov    %esp,%ebp
 628:	57                   	push   %edi
 629:	56                   	push   %esi
 62a:	53                   	push   %ebx
 62b:	8b 5d 08             	mov    0x8(%ebp),%ebx
  bp = (Header*)ap - 1;
 62e:	8d 4b f8             	lea    -0x8(%ebx),%ecx
  for(p = freep; !(bp > p && bp < p->s.ptr); p = p->s.ptr)
 631:	2e 8d b4 26 00 00 00 	lea    %cs:0x0(%esi,%eiz,1),%esi
 638:	00 
 639:	8d b4 26 00 00 00 00 	lea    0x0(%esi,%eiz,1),%esi
 640:	89 c2                	mov    %eax,%edx
    if(p >= p->s.ptr && (bp > p || bp < p->s.ptr))
 642:	8b 00                	mov    (%eax),%eax
  for(p = freep; !(bp > p && bp < p->s.ptr); p = p->s.ptr)
 644:	39 ca                	cmp    %ecx,%edx
 646:	73 30                	jae    678 <free+0x58>
 648:	39 c1                	cmp    %eax,%ecx
 64a:	72 04                	jb     650 <free+0x30>
    if(p >= p->s.ptr && (bp > p || bp < p->s.ptr))
 64c:	39 c2                	cmp    %eax,%edx
 64e:	72 f0                	jb     640 <free+0x20>
      break;
  if(bp + bp->s.size == p->s.ptr){
 650:	8b 73 fc             	mov    -0x4(%ebx),%esi
 653:	8d 3c f1             	lea    (%ecx,%esi,8),%edi
 656:	39 f8                	cmp    %edi,%eax
 658:	74 36                	je     690 <free+0x70>
    bp->s.size += p->s.ptr->s.size;
    bp->s.ptr = p->s.ptr->s.ptr;
 65a:	89 43 f8             	mov    %eax,-0x8(%ebx)
  } else
    bp->s.ptr = p->s.ptr;
  if(p + p->s.size == bp){
 65d:	8b 42 04             	mov    0x4(%edx),%eax
 660:	8d 34 c2             	lea    (%edx,%eax,8),%esi
 663:	39 f1                	cmp    %esi,%ecx
 665:	74 40                	je     6a7 <free+0x87>
    p->s.size += bp->s.size;
    p->s.ptr = bp->s.ptr;
 667:	89 0a                	mov    %ecx,(%edx)
  } else
    p->s.ptr = bp;
  freep = p;
}
 669:	5b                   	pop    %ebx
  freep = p;
 66a:	89 15 e8 0a 00 00    	mov    %edx,0xae8
}
 670:	5e                   	pop    %esi
 671:	5f                   	pop    %edi
 672:	5d                   	pop    %ebp
 673:	c3                   	ret
 674:	8d 74 26 00          	lea    0x0(%esi,%eiz,1),%esi
    if(p >= p->s.ptr && (bp > p || bp < p->s.ptr))
 678:	39 c2                	cmp    %eax,%edx
 67a:	72 c4                	jb     640 <free+0x20>
 67c:	39 c1                	cmp    %eax,%ecx
 67e:	73 c0                	jae    640 <free+0x20>
  if(bp + bp->s.size == p->s.ptr){
 680:	8b 73 fc             	mov    -0x4(%ebx),%esi
 683:	8d 3c f1             	lea    (%ecx,%esi,8),%edi
 686:	39 f8                	cmp    %edi,%eax
 688:	75 d0                	jne    65a <free+0x3a>
 68a:	8d b6 00 00 00 00    	lea    0x0(%esi),%esi
    bp->s.size += p->s.ptr->s.size;
 690:	03 70 04             	add    0x4(%eax),%esi
 693:	89 73 fc             	mov    %esi,-0x4(%ebx)
    bp->s.ptr = p->s.ptr->s.ptr;
 696:	8b 02                	mov    (%edx),%eax
 698:	8b 00                	mov    (%eax),%eax
 69a:	89 43 f8             	mov    %eax,-0x8(%ebx)
  if(p + p->s.size == bp){
 69d:	8b 42 04             	mov    0x4(%edx),%eax
 6a0:	8d 34 c2             	lea    (%edx,%eax,8),%esi
 6a3:	39 f1                	cmp    %esi,%ecx
 6a5:	75 c0                	jne    667 <free+0x47>
    p->s.size += bp->s.size;
 6a7:	03 43 fc             	add    -0x4(%ebx),%eax
  freep = p;
 6aa:	89 15 e8 0a 00 00    	mov    %edx,0xae8
    p->s.size += bp->s.size;
 6b0:	89 42 04             	mov    %eax,0x4(%edx)
    p->s.ptr = bp->s.ptr;
 6b3:	8b 4b f8             	mov    -0x8(%ebx),%ecx
 6b6:	89 0a                	mov    %ecx,(%edx)
}
 6b8:	5b                   	pop    %ebx
 6b9:	5e                   	pop    %esi
 6ba:	5f                   	pop    %edi
 6bb:	5d                   	pop    %ebp
 6bc:	c3                   	ret
 6bd:	8d 76 00             	lea    0x0(%esi),%esi

000006c0 <malloc>:
  return freep;
}

void*
malloc(uint nbytes)
{
 6c0:	55                   	push   %ebp
 6c1:	89 e5                	mov    %esp,%ebp
 6c3:	57                   	push   %edi
 6c4:	56                   	push   %esi
 6c5:	53                   	push   %ebx
 6c6:	83 ec 0c             	sub    $0xc,%esp
  Header *p, *prevp;
  uint nunits;

  nunits = (nbytes + sizeof(Header) - 1)/sizeof(Header) + 1;
 6c9:	8b 45 08             	mov    0x8(%ebp),%eax
  if((prevp = freep) == 0){
 6cc:	8b 15 e8 0a 00 00    	mov    0xae8,%edx
  nunits = (nbytes + sizeof(Header) - 1)/sizeof(Header) + 1;
 6d2:	8d 78 07             	lea    0x7(%eax),%edi
 6d5:	c1 ef 03             	shr    $0x3,%edi
 6d8:	83 c7 01             	add    $0x1,%edi
  if((prevp = freep) == 0){
 6db:	85 d2                	test   %edx,%edx
 6dd:	0f 84 8d 00 00 00    	je     770 <malloc+0xb0>
    base.s.ptr = freep = prevp = &base;
    base.s.size = 0;
  }
  for(p = prevp->s.ptr; ; prevp = p, p = p->s.ptr){
 6e3:	8b 02                	mov    (%edx),%eax
    if(p->s.size >= nunits){
 6e5:	8b 48 04             	mov    0x4(%eax),%ecx
 6e8:	39 f9                	cmp    %edi,%ecx
 6ea:	73 64                	jae    750 <malloc+0x90>
  if(nu < 4096)
 6ec:	bb 00 10 00 00       	mov    $0x1000,%ebx
 6f1:	39 df                	cmp    %ebx,%edi
 6f3:	0f 43 df             	cmovae %edi,%ebx
  p = sbrk(nu * sizeof(Header));
 6f6:	8d 34 dd 00 00 00 00 	lea    0x0(,%ebx,8),%esi
 6fd:	eb 0a                	jmp    709 <malloc+0x49>
 6ff:	90                   	nop
  for(p = prevp->s.ptr; ; prevp = p, p = p->s.ptr){
 700:	8b 02                	mov    (%edx),%eax
    if(p->s.size >= nunits){
 702:	8b 48 04             	mov    0x4(%eax),%ecx
 705:	39 f9                	cmp    %edi,%ecx
 707:	73 47                	jae    750 <malloc+0x90>
        p->s.size = nunits;
      }
      freep = prevp;
      return (void*)(p + 1);
    }
    if(p == freep)
 709:	89 c2                	mov    %eax,%edx
 70b:	39 05 e8 0a 00 00    	cmp    %eax,0xae8
 711:	75 ed                	jne    700 <malloc+0x40>
  p = sbrk(nu * sizeof(Header));
 713:	83 ec 0c             	sub    $0xc,%esp
 716:	56                   	push   %esi
 717:	e8 3f fc ff ff       	call   35b <sbrk>
  if(p == (char*)-1)
 71c:	83 c4 10             	add    $0x10,%esp
 71f:	83 f8 ff             	cmp    $0xffffffff,%eax
 722:	74 1c                	je     740 <malloc+0x80>
  hp->s.size = nu;
 724:	89 58 04             	mov    %ebx,0x4(%eax)
  free((void*)(hp + 1));
 727:	83 ec 0c             	sub    $0xc,%esp
 72a:	83 c0 08             	add    $0x8,%eax
 72d:	50                   	push   %eax
 72e:	e8 ed fe ff ff       	call   620 <free>
  return freep;
 733:	8b 15 e8 0a 00 00    	mov    0xae8,%edx
      if((p = morecore(nunits)) == 0)
 739:	83 c4 10             	add    $0x10,%esp
 73c:	85 d2                	test   %edx,%edx
 73e:	75 c0                	jne    700 <malloc+0x40>
        return 0;
  }
}
 740:	8d 65 f4             	lea    -0xc(%ebp),%esp
        return 0;
 743:	31 c0                	xor    %eax,%eax
}
 745:	5b                   	pop    %ebx
 746:	5e                   	pop    %esi
 747:	5f                   	pop    %edi
 748:	5d                   	pop    %ebp
 749:	c3                   	ret
 74a:	8d b6 00 00 00 00    	lea    0x0(%esi),%esi
      if(p->s.size == nunits)
 750:	39 cf                	cmp    %ecx,%edi
 752:	74 4c                	je     7a0 <malloc+0xe0>
        p->s.size -= nunits;
 754:	29 f9                	sub    %edi,%ecx
 756:	89 48 04             	mov    %ecx,0x4(%eax)
        p += p->s.size;
 759:	8d 04 c8             	lea    (%eax,%ecx,8),%eax
        p->s.size = nunits;
 75c:	89 78 04             	mov    %edi,0x4(%eax)
      freep = prevp;
 75f:	89 15 e8 0a 00 00    	mov    %edx,0xae8
}
 765:	8d 65 f4             	lea    -0xc(%ebp),%esp
      return (void*)(p + 1);
 768:	83 c0 08             	add    $0x8,%eax
}
 76b:	5b                   	pop    %ebx
 76c:	5e                   	pop    %esi
 76d:	5f                   	pop    %edi
 76e:	5d                   	pop    %ebp
 76f:	c3                   	ret
    base.s.ptr = freep = prevp = &base;
 770:	c7 05 e8 0a 00 00 ec 	movl   $0xaec,0xae8
 777:	0a 00 00 
    base.s.size = 0;
 77a:	b8 ec 0a 00 00       	mov    $0xaec,%eax
    base.s.ptr = freep = prevp = &base;
 77f:	c7 05 ec 0a 00 00 ec 	movl   $0xaec,0xaec
 786:	0a 00 00 
    base.s.size = 0;
 789:	c7 05 f0 0a 00 00 00 	movl   $0x0,0xaf0
 790:	00 00 00 
    if(p->s.size >= nunits){
 793:	e9 54 ff ff ff       	jmp    6ec <malloc+0x2c>
 798:	2e 8d b4 26 00 00 00 	lea    %cs:0x0(%esi,%eiz,1),%esi
 79f:	00 
        prevp->s.ptr = p->s.ptr;
 7a0:	8b 08                	mov    (%eax),%ecx
 7a2:	89 0a                	mov    %ecx,(%edx)
 7a4:	eb b9                	jmp    75f <malloc+0x9f>
